target datalayout = "e-m:e-p270:32:32-p271:32:32-p272:64:64-i64:64-i128:128-f80:128-n8:16:32:64-S128"
target triple = "x86_64-pc-linux-gnu"

%struct.Pdr_Par_t_ = type { i32, i32, i32, i32, i32, i32, i32, i32, i32, i32, i32, i32, i32, i32, i32, i32, i32, i32, i32, i32, i32, i32, i32, i32, i32, i32, i32, i32, i32, i32, i32, i32, i32, i32, i32, i32, i32, i32, ptr, ptr, i64, ptr, ptr }

; Function Attrs: nounwind uwtable
define void @Pdr_ManSetDefaultParams(ptr noundef %0) #0 {
  %2 = alloca ptr, align 8
  store ptr %0, ptr %2, align 8, !tbaa !7
  %3 = load ptr, ptr %2, align 8, !tbaa !7
  call void @llvm.memset.p0.i64(ptr align 8 %3, i8 0, i64 192, i1 false)
  %4 = load ptr, ptr %2, align 8, !tbaa !7
  %5 = getelementptr inbounds nuw %struct.Pdr_Par_t_, ptr %4, i32 0, i32 0
  store i32 300, ptr %5, align 8, !tbaa !10
  %6 = load ptr, ptr %2, align 8, !tbaa !7
  %7 = getelementptr inbounds nuw %struct.Pdr_Par_t_, ptr %6, i32 0, i32 1
  store i32 10000, ptr %7, align 4, !tbaa !15
  %8 = load ptr, ptr %2, align 8, !tbaa !7
  %9 = getelementptr inbounds nuw %struct.Pdr_Par_t_, ptr %8, i32 0, i32 5
  store i32 0, ptr %9, align 4, !tbaa !16
  %10 = load ptr, ptr %2, align 8, !tbaa !7
  %11 = getelementptr inbounds nuw %struct.Pdr_Par_t_, ptr %10, i32 0, i32 6
  store i32 0, ptr %11, align 8, !tbaa !17
  %12 = load ptr, ptr %2, align 8, !tbaa !7
  %13 = getelementptr inbounds nuw %struct.Pdr_Par_t_, ptr %12, i32 0, i32 2
  store i32 0, ptr %13, align 8, !tbaa !18
  %14 = load ptr, ptr %2, align 8, !tbaa !7
  %15 = getelementptr inbounds nuw %struct.Pdr_Par_t_, ptr %14, i32 0, i32 3
  store i32 0, ptr %15, align 4, !tbaa !19
  %16 = load ptr, ptr %2, align 8, !tbaa !7
  %17 = getelementptr inbounds nuw %struct.Pdr_Par_t_, ptr %16, i32 0, i32 4
  store i32 0, ptr %17, align 8, !tbaa !20
  %18 = load ptr, ptr %2, align 8, !tbaa !7
  %19 = getelementptr inbounds nuw %struct.Pdr_Par_t_, ptr %18, i32 0, i32 8
  store i32 91648253, ptr %19, align 8, !tbaa !21
  %20 = load ptr, ptr %2, align 8, !tbaa !7
  %21 = getelementptr inbounds nuw %struct.Pdr_Par_t_, ptr %20, i32 0, i32 9
  store i32 0, ptr %21, align 4, !tbaa !22
  %22 = load ptr, ptr %2, align 8, !tbaa !7
  %23 = getelementptr inbounds nuw %struct.Pdr_Par_t_, ptr %22, i32 0, i32 10
  store i32 0, ptr %23, align 8, !tbaa !23
  %24 = load ptr, ptr %2, align 8, !tbaa !7
  %25 = getelementptr inbounds nuw %struct.Pdr_Par_t_, ptr %24, i32 0, i32 11
  store i32 0, ptr %25, align 4, !tbaa !24
  %26 = load ptr, ptr %2, align 8, !tbaa !7
  %27 = getelementptr inbounds nuw %struct.Pdr_Par_t_, ptr %26, i32 0, i32 12
  store i32 0, ptr %27, align 8, !tbaa !25
  %28 = load ptr, ptr %2, align 8, !tbaa !7
  %29 = getelementptr inbounds nuw %struct.Pdr_Par_t_, ptr %28, i32 0, i32 13
  store i32 0, ptr %29, align 4, !tbaa !26
  %30 = load ptr, ptr %2, align 8, !tbaa !7
  %31 = getelementptr inbounds nuw %struct.Pdr_Par_t_, ptr %30, i32 0, i32 14
  store i32 0, ptr %31, align 8, !tbaa !27
  %32 = load ptr, ptr %2, align 8, !tbaa !7
  %33 = getelementptr inbounds nuw %struct.Pdr_Par_t_, ptr %32, i32 0, i32 15
  store i32 1, ptr %33, align 4, !tbaa !28
  %34 = load ptr, ptr %2, align 8, !tbaa !7
  %35 = getelementptr inbounds nuw %struct.Pdr_Par_t_, ptr %34, i32 0, i32 16
  store i32 0, ptr %35, align 8, !tbaa !29
  %36 = load ptr, ptr %2, align 8, !tbaa !7
  %37 = getelementptr inbounds nuw %struct.Pdr_Par_t_, ptr %36, i32 0, i32 32
  store i32 1, ptr %37, align 8, !tbaa !30
  %38 = load ptr, ptr %2, align 8, !tbaa !7
  %39 = getelementptr inbounds nuw %struct.Pdr_Par_t_, ptr %38, i32 0, i32 21
  store i32 1, ptr %39, align 4, !tbaa !31
  %40 = load ptr, ptr %2, align 8, !tbaa !7
  %41 = getelementptr inbounds nuw %struct.Pdr_Par_t_, ptr %40, i32 0, i32 22
  store i32 0, ptr %41, align 8, !tbaa !32
  %42 = load ptr, ptr %2, align 8, !tbaa !7
  %43 = getelementptr inbounds nuw %struct.Pdr_Par_t_, ptr %42, i32 0, i32 23
  store i32 0, ptr %43, align 4, !tbaa !33
  %44 = load ptr, ptr %2, align 8, !tbaa !7
  %45 = getelementptr inbounds nuw %struct.Pdr_Par_t_, ptr %44, i32 0, i32 24
  store i32 0, ptr %45, align 8, !tbaa !34
  %46 = load ptr, ptr %2, align 8, !tbaa !7
  %47 = getelementptr inbounds nuw %struct.Pdr_Par_t_, ptr %46, i32 0, i32 25
  store i32 0, ptr %47, align 4, !tbaa !35
  %48 = load ptr, ptr %2, align 8, !tbaa !7
  %49 = getelementptr inbounds nuw %struct.Pdr_Par_t_, ptr %48, i32 0, i32 26
  store i32 0, ptr %49, align 8, !tbaa !36
  %50 = load ptr, ptr %2, align 8, !tbaa !7
  %51 = getelementptr inbounds nuw %struct.Pdr_Par_t_, ptr %50, i32 0, i32 27
  store i32 0, ptr %51, align 4, !tbaa !37
  %52 = load ptr, ptr %2, align 8, !tbaa !7
  %53 = getelementptr inbounds nuw %struct.Pdr_Par_t_, ptr %52, i32 0, i32 36
  store i32 -1, ptr %53, align 8, !tbaa !38
  %54 = load ptr, ptr %2, align 8, !tbaa !7
  %55 = getelementptr inbounds nuw %struct.Pdr_Par_t_, ptr %54, i32 0, i32 33
  store i32 0, ptr %55, align 4, !tbaa !39
  %56 = load ptr, ptr %2, align 8, !tbaa !7
  %57 = getelementptr inbounds nuw %struct.Pdr_Par_t_, ptr %56, i32 0, i32 34
  store i32 0, ptr %57, align 8, !tbaa !40
  %58 = load ptr, ptr %2, align 8, !tbaa !7
  %59 = getelementptr inbounds nuw %struct.Pdr_Par_t_, ptr %58, i32 0, i32 40
  store i64 0, ptr %59, align 8, !tbaa !41
  %60 = load ptr, ptr %2, align 8, !tbaa !7
  %61 = getelementptr inbounds nuw %struct.Pdr_Par_t_, ptr %60, i32 0, i32 42
  store ptr null, ptr %61, align 8, !tbaa !42
  ret void
}